; Function Attrs: mustprogress uwtable
define hidden noundef ptr @_ZNK11func_interp9get_entryEPKP4expr(ptr nocapture noundef nonnull readonly align 8 dereferenceable(56) %this, ptr nocapture noundef readonly %args) local_unnamed_addr #3 align 2 {
entry:
  %m_entries = getelementptr inbounds i8, ptr %this, i64 16
  %0 = load ptr, ptr %m_entries, align 8
  %cmp.i.i = icmp eq ptr %0, null
  br i1 %cmp.i.i, label %return, label %_ZNK6vectorIP10func_entryLb0EjE3endEv.exit

_ZNK6vectorIP10func_entryLb0EjE3endEv.exit:       ; preds = %entry
  %arrayidx.i.i = getelementptr inbounds i8, ptr %0, i64 -4
  %1 = load i32, ptr %arrayidx.i.i, align 4
  %2 = zext i32 %1 to i64
  %add.ptr.i = getelementptr inbounds ptr, ptr %0, i64 %2
  %cmp.not9 = icmp eq i32 %1, 0
  br i1 %cmp.not9, label %return, label %for.body.lr.ph

for.body.lr.ph:                                   ; preds = %_ZNK6vectorIP10func_entryLb0EjE3endEv.exit
  %m_arity = getelementptr inbounds i8, ptr %this, i64 8
  br label %for.body

for.cond:                                         ; preds = %for.body.lr.ph.i, %_ZNK10func_entry7eq_argsER11ast_managerjPKP4expr.exit
  %incdec.ptr = getelementptr inbounds i8, ptr %__begin1.010, i64 8
  %cmp.not = icmp eq ptr %incdec.ptr, %add.ptr.i
  br i1 %cmp.not, label %return, label %for.body

for.body:                                         ; preds = %for.body.lr.ph, %for.cond
  %__begin1.010 = phi ptr [ %0, %for.body.lr.ph ], [ %incdec.ptr, %for.cond ]
  %3 = load ptr, ptr %__begin1.010, align 8
  %4 = load ptr, ptr %this, align 8
  %5 = load i32, ptr %m_arity, align 8
  %cmp4.i = icmp eq i32 %5, 0
  br i1 %cmp4.i, label %return, label %for.body.lr.ph.i

for.body.lr.ph.i:                                 ; preds = %for.body
  %m_args.i = getelementptr inbounds i8, ptr %3, i64 16
  %6 = zext i32 %5 to i64
  %7 = load ptr, ptr %m_args.i, align 8
  %8 = load ptr, ptr %args, align 8
  %call.i6 = tail call noundef zeroext i1 @_ZNK11ast_manager9are_equalEP4exprS1_(ptr noundef nonnull align 8 dereferenceable(976) %4, ptr noundef %7, ptr noundef %8)
  br i1 %call.i6, label %for.cond.i, label %for.cond

for.cond.i:                                       ; preds = %for.body.lr.ph.i, %for.body.i
  %indvars.iv.i7 = phi i64 [ %indvars.iv.next.i, %for.body.i ], [ 0, %for.body.lr.ph.i ]
  %indvars.iv.next.i = add nuw nsw i64 %indvars.iv.i7, 1
  %exitcond.i = icmp eq i64 %indvars.iv.next.i, %6
  br i1 %exitcond.i, label %_ZNK10func_entry7eq_argsER11ast_managerjPKP4expr.exit, label %for.body.i, !llvm.loop !6

for.body.i:                                       ; preds = %for.cond.i
  %arrayidx.i = getelementptr inbounds [0 x ptr], ptr %m_args.i, i64 0, i64 %indvars.iv.next.i
  %9 = load ptr, ptr %arrayidx.i, align 8
  %arrayidx3.i = getelementptr inbounds ptr, ptr %args, i64 %indvars.iv.next.i
  %10 = load ptr, ptr %arrayidx3.i, align 8
  %call.i = tail call noundef zeroext i1 @_ZNK11ast_manager9are_equalEP4exprS1_(ptr noundef nonnull align 8 dereferenceable(976) %4, ptr noundef %9, ptr noundef %10)
  br i1 %call.i, label %for.cond.i, label %_ZNK10func_entry7eq_argsER11ast_managerjPKP4expr.exit, !llvm.loop !6

_ZNK10func_entry7eq_argsER11ast_managerjPKP4expr.exit: ; preds = %for.body.i, %for.cond.i
  %cmp.i.le.not = icmp ult i64 %indvars.iv.next.i, %6
  br i1 %cmp.i.le.not, label %for.cond, label %return

return:                                           ; preds = %_ZNK10func_entry7eq_argsER11ast_managerjPKP4expr.exit, %for.cond, %for.body, %entry, %_ZNK6vectorIP10func_entryLb0EjE3endEv.exit
  %retval.0 = phi ptr [ null, %_ZNK6vectorIP10func_entryLb0EjE3endEv.exit ], [ null, %entry ], [ %3, %for.body ], [ null, %for.cond ], [ %3, %_ZNK10func_entry7eq_argsER11ast_managerjPKP4expr.exit ]
  ret ptr %retval.0
}